; ModuleID = '19/672.c'
source_filename = "19/672.c"
target datalayout = "e-m:e-p270:32:32-p271:32:32-p272:64:64-i64:64-f80:128-n8:16:32:64-S128"
target triple = "x86_64-pc-linux-gnu"

@.str = private unnamed_addr constant [3 x i8] c"%c\00", align 1
@.str.1 = private unnamed_addr constant [2 x i8] c" \00", align 1
@.str.2 = private unnamed_addr constant [2 x i8] c"\0A\00", align 1
@.str.3 = private unnamed_addr constant [3 x i8] c"%s\00", align 1

; Function Attrs: noinline nounwind uwtable
define dso_local i32 @main() #0 {
  %1 = alloca i32, align 4
  %2 = alloca i32, align 4
  %3 = alloca i32, align 4
  %4 = alloca i32, align 4
  %5 = alloca i32, align 4
  %6 = alloca i32, align 4
  %7 = alloca i32, align 4
  %8 = alloca [201 x i8], align 16
  %9 = alloca [101 x i8], align 16
  %10 = alloca [101 x i8], align 16
  store i32 0, i32* %1, align 4
  %11 = getelementptr inbounds [201 x i8], [201 x i8]* %8, i64 0, i64 0
  %12 = call i32 (i8*, ...) bitcast (i32 (...)* @gets to i32 (i8*, ...)*)(i8* %11)
  %13 = getelementptr inbounds [201 x i8], [201 x i8]* %8, i64 0, i64 0
  %14 = call i64 @strlen(i8* %13) #3
  %15 = trunc i64 %14 to i32
  store i32 %15, i32* %4, align 4
  %16 = getelementptr inbounds [101 x i8], [101 x i8]* %9, i64 0, i64 0
  %17 = call i32 (i8*, ...) bitcast (i32 (...)* @gets to i32 (i8*, ...)*)(i8* %16)
  %18 = getelementptr inbounds [101 x i8], [101 x i8]* %9, i64 0, i64 0
  %19 = call i64 @strlen(i8* %18) #3
  %20 = trunc i64 %19 to i32
  store i32 %20, i32* %5, align 4
  %21 = getelementptr inbounds [101 x i8], [101 x i8]* %10, i64 0, i64 0
  %22 = call i32 (i8*, ...) bitcast (i32 (...)* @gets to i32 (i8*, ...)*)(i8* %21)
  %23 = load i32, i32* %4, align 4
  %24 = sext i32 %23 to i64
  %25 = getelementptr inbounds [201 x i8], [201 x i8]* %8, i64 0, i64 %24
  store i8 32, i8* %25, align 1
  %26 = load i32, i32* %4, align 4
  %27 = add nsw i32 %26, 1
  %28 = sext i32 %27 to i64
  %29 = getelementptr inbounds [201 x i8], [201 x i8]* %8, i64 0, i64 %28
  store i8 0, i8* %29, align 1
  store i32 -1, i32* %2, align 4
  br label %30

30:                                               ; preds = %143, %0
  %31 = load i32, i32* %2, align 4
  %32 = load i32, i32* %4, align 4
  %33 = icmp slt i32 %31, %32
  br i1 %33, label %34, label %144

34:                                               ; preds = %30
  %35 = load i32, i32* %2, align 4
  %36 = add nsw i32 %35, 1
  store i32 %36, i32* %2, align 4
  %37 = load i32, i32* %2, align 4
  store i32 %37, i32* %6, align 4
  br label %38

38:                                               ; preds = %45, %34
  %39 = load i32, i32* %2, align 4
  %40 = sext i32 %39 to i64
  %41 = getelementptr inbounds [201 x i8], [201 x i8]* %8, i64 0, i64 %40
  %42 = load i8, i8* %41, align 1
  %43 = sext i8 %42 to i32
  %44 = icmp ne i32 %43, 32
  br i1 %44, label %45, label %48

45:                                               ; preds = %38
  %46 = load i32, i32* %2, align 4
  %47 = add nsw i32 %46, 1
  store i32 %47, i32* %2, align 4
  br label %38

48:                                               ; preds = %38
  %49 = load i32, i32* %2, align 4
  %50 = load i32, i32* %6, align 4
  %51 = sub nsw i32 %49, %50
  %52 = load i32, i32* %5, align 4
  %53 = icmp ne i32 %51, %52
  br i1 %53, label %54, label %79

54:                                               ; preds = %48
  %55 = load i32, i32* %6, align 4
  store i32 %55, i32* %3, align 4
  br label %56

56:                                               ; preds = %67, %54
  %57 = load i32, i32* %3, align 4
  %58 = load i32, i32* %2, align 4
  %59 = icmp slt i32 %57, %58
  br i1 %59, label %60, label %70

60:                                               ; preds = %56
  %61 = load i32, i32* %3, align 4
  %62 = sext i32 %61 to i64
  %63 = getelementptr inbounds [201 x i8], [201 x i8]* %8, i64 0, i64 %62
  %64 = load i8, i8* %63, align 1
  %65 = sext i8 %64 to i32
  %66 = call i32 (i8*, ...) @printf(i8* getelementptr inbounds ([3 x i8], [3 x i8]* @.str, i64 0, i64 0), i32 %65)
  br label %67

67:                                               ; preds = %60
  %68 = load i32, i32* %3, align 4
  %69 = add nsw i32 %68, 1
  store i32 %69, i32* %3, align 4
  br label %56

70:                                               ; preds = %56
  %71 = load i32, i32* %2, align 4
  %72 = load i32, i32* %4, align 4
  %73 = icmp ne i32 %71, %72
  br i1 %73, label %74, label %76

74:                                               ; preds = %70
  %75 = call i32 (i8*, ...) @printf(i8* getelementptr inbounds ([2 x i8], [2 x i8]* @.str.1, i64 0, i64 0))
  br label %78

76:                                               ; preds = %70
  %77 = call i32 (i8*, ...) @printf(i8* getelementptr inbounds ([2 x i8], [2 x i8]* @.str.2, i64 0, i64 0))
  br label %144

78:                                               ; preds = %74
  br label %143

79:                                               ; preds = %48
  store i32 1, i32* %7, align 4
  store i32 0, i32* %3, align 4
  br label %80

80:                                               ; preds = %100, %79
  %81 = load i32, i32* %3, align 4
  %82 = load i32, i32* %5, align 4
  %83 = icmp slt i32 %81, %82
  br i1 %83, label %84, label %103

84:                                               ; preds = %80
  %85 = load i32, i32* %6, align 4
  %86 = load i32, i32* %3, align 4
  %87 = add nsw i32 %85, %86
  %88 = sext i32 %87 to i64
  %89 = getelementptr inbounds [201 x i8], [201 x i8]* %8, i64 0, i64 %88
  %90 = load i8, i8* %89, align 1
  %91 = sext i8 %90 to i32
  %92 = load i32, i32* %3, align 4
  %93 = sext i32 %92 to i64
  %94 = getelementptr inbounds [101 x i8], [101 x i8]* %9, i64 0, i64 %93
  %95 = load i8, i8* %94, align 1
  %96 = sext i8 %95 to i32
  %97 = icmp ne i32 %91, %96
  br i1 %97, label %98, label %99

98:                                               ; preds = %84
  store i32 0, i32* %7, align 4
  br label %103

99:                                               ; preds = %84
  br label %100

100:                                              ; preds = %99
  %101 = load i32, i32* %3, align 4
  %102 = add nsw i32 %101, 1
  store i32 %102, i32* %3, align 4
  br label %80

103:                                              ; preds = %98, %80
  %104 = load i32, i32* %7, align 4
  %105 = icmp eq i32 %104, 1
  br i1 %105, label %106, label %117

106:                                              ; preds = %103
  %107 = getelementptr inbounds [101 x i8], [101 x i8]* %10, i64 0, i64 0
  %108 = call i32 (i8*, ...) @printf(i8* getelementptr inbounds ([3 x i8], [3 x i8]* @.str.3, i64 0, i64 0), i8* %107)
  %109 = load i32, i32* %2, align 4
  %110 = load i32, i32* %4, align 4
  %111 = icmp ne i32 %109, %110
  br i1 %111, label %112, label %114

112:                                              ; preds = %106
  %113 = call i32 (i8*, ...) @printf(i8* getelementptr inbounds ([2 x i8], [2 x i8]* @.str.1, i64 0, i64 0))
  br label %116

114:                                              ; preds = %106
  %115 = call i32 (i8*, ...) @printf(i8* getelementptr inbounds ([2 x i8], [2 x i8]* @.str.2, i64 0, i64 0))
  br label %144

116:                                              ; preds = %112
  br label %142

117:                                              ; preds = %103
  %118 = load i32, i32* %6, align 4
  store i32 %118, i32* %3, align 4
  br label %119

119:                                              ; preds = %130, %117
  %120 = load i32, i32* %3, align 4
  %121 = load i32, i32* %2, align 4
  %122 = icmp slt i32 %120, %121
  br i1 %122, label %123, label %133

123:                                              ; preds = %119
  %124 = load i32, i32* %3, align 4
  %125 = sext i32 %124 to i64
  %126 = getelementptr inbounds [201 x i8], [201 x i8]* %8, i64 0, i64 %125
  %127 = load i8, i8* %126, align 1
  %128 = sext i8 %127 to i32
  %129 = call i32 (i8*, ...) @printf(i8* getelementptr inbounds ([3 x i8], [3 x i8]* @.str, i64 0, i64 0), i32 %128)
  br label %130

130:                                              ; preds = %123
  %131 = load i32, i32* %3, align 4
  %132 = add nsw i32 %131, 1
  store i32 %132, i32* %3, align 4
  br label %119

133:                                              ; preds = %119
  %134 = load i32, i32* %2, align 4
  %135 = load i32, i32* %4, align 4
  %136 = icmp ne i32 %134, %135
  br i1 %136, label %137, label %139

137:                                              ; preds = %133
  %138 = call i32 (i8*, ...) @printf(i8* getelementptr inbounds ([2 x i8], [2 x i8]* @.str.1, i64 0, i64 0))
  br label %141

139:                                              ; preds = %133
  %140 = call i32 (i8*, ...) @printf(i8* getelementptr inbounds ([2 x i8], [2 x i8]* @.str.2, i64 0, i64 0))
  br label %144

141:                                              ; preds = %137
  br label %142

142:                                              ; preds = %141, %116
  br label %143

143:                                              ; preds = %142, %78
  br label %30

144:                                              ; preds = %139, %114, %76, %30
  ret i32 0
}

declare dso_local i32 @gets(...) #1

; Function Attrs: nounwind readonly
declare dso_local i64 @strlen(i8*) #2

declare dso_local i32 @printf(i8*, ...) #1


!llvm.module.flags = !{!0}
!llvm.ident = !{!1}

!0 = !{i32 1, !"wchar_size", i32 4}
!1 = !{!"clang version 10.0.0-4ubuntu1 "}
